; Function Attrs: nounwind uwtable
define i32 @pmix20_bfrop_pack_kval(ptr noundef %0, ptr noundef %1, ptr noundef readonly captures(none) %2, i32 noundef %3, i16 noundef zeroext %4) local_unnamed_addr #0 {
  %6 = alloca ptr, align 8
  call void @llvm.lifetime.start.p0(i64 8, ptr nonnull %6) #8
  %7 = icmp sgt i32 %3, 0
  br i1 %7, label %.lr.ph.preheader, label %pmix20_bfrop_pack_value.exit.thread

.lr.ph.preheader:                                 ; preds = %5
  %wide.trip.count = zext nneg i32 %3 to i64
  br label %.lr.ph

.lr.ph:                                           ; preds = %.lr.ph.preheader, %pmix20_bfrop_pack_value.exit
  %indvars.iv = phi i64 [ 0, %.lr.ph.preheader ], [ %indvars.iv.next, %pmix20_bfrop_pack_value.exit ]
  %8 = getelementptr inbounds nuw %struct.pmix_kval_t, ptr %2, i64 %indvars.iv
  %9 = getelementptr inbounds nuw i8, ptr %8, i64 144
  %10 = load ptr, ptr %9, align 8, !tbaa !78
  store ptr %10, ptr %6, align 8, !tbaa !45
  %11 = call i32 @pmix20_bfrop_pack_string(ptr poison, ptr noundef %1, ptr noundef nonnull %6, i32 noundef 1, i16 zeroext poison)
  %.not = icmp eq i32 %11, 0
  br i1 %.not, label %.lr.ph.i, label %pmix20_bfrop_pack_value.exit.thread

.lr.ph.i:                                         ; preds = %.lr.ph
  %12 = getelementptr inbounds nuw i8, ptr %8, i64 152
  %13 = load ptr, ptr %12, align 8, !tbaa !81
  %14 = load i16, ptr %13, align 8, !tbaa !61
  %15 = tail call i32 @pmix20_bfrop_store_data_type(ptr noundef %0, ptr noundef %1, i16 noundef zeroext %14) #8
  %.not.i = icmp eq i32 %15, 0
  br i1 %.not.i, label %16, label %pmix20_bfrop_pack_value.exit.thread

pmix20_bfrop_pack_value.exit:                     ; preds = %16
  %indvars.iv.next = add nuw nsw i64 %indvars.iv, 1
  %exitcond.not = icmp eq i64 %indvars.iv.next, %wide.trip.count
  br i1 %exitcond.not, label %pmix20_bfrop_pack_value.exit.thread, label %.lr.ph, !llvm.loop !82

16:                                               ; preds = %.lr.ph.i
  %17 = tail call fastcc i32 @pack_val(ptr noundef %0, ptr noundef %1, ptr noundef nonnull %13)
  %.not17.i = icmp eq i32 %17, 0
  br i1 %.not17.i, label %pmix20_bfrop_pack_value.exit, label %pmix20_bfrop_pack_value.exit.thread

pmix20_bfrop_pack_value.exit.thread:              ; preds = %.lr.ph, %pmix20_bfrop_pack_value.exit, %.lr.ph.i, %16, %5
  %.014 = phi i32 [ 0, %5 ], [ %11, %.lr.ph ], [ 0, %pmix20_bfrop_pack_value.exit ], [ %17, %16 ], [ %15, %.lr.ph.i ]
  call void @llvm.lifetime.end.p0(i64 8, ptr nonnull %6) #8
  ret i32 %.014
}